	.file	"t2.c"
	.text
	.globl	f
	.type	f, @function
f:
.LFB0:
	.cfi_startproc
	pushq	%rbp
	.cfi_def_cfa_offset 16
	.cfi_offset 6, -16
	movq	%rsp, %rbp
	.cfi_def_cfa_register 6
	movl	$1, %eax
	popq	%rbp
	.cfi_def_cfa 7, 8
	ret
	.cfi_endproc
.LFE0:
	.size	f, .-f
	.section	.rodata
.LC0:
	.string	"hi"
	.text
	.type	f.2187, @function
f.2187:
.LFB2:
	.cfi_startproc
	pushq	%rbp
	.cfi_def_cfa_offset 16
	.cfi_offset 6, -16
	movq	%rsp, %rbp
	.cfi_def_cfa_register 6
	movl	$.LC0, %edi
	movl	$0, %eax
	call	printf
	popq	%rbp
	.cfi_def_cfa 7, 8
	ret
	.cfi_endproc
.LFE2:
	.size	f.2187, .-f.2187
	.section	.rodata
.LC1:
	.string	"\np is %d\n"
.LC2:
	.string	"\nx=%u\n"
	.text
	.globl	main
	.type	main, @function
main:
.LFB1:
	.cfi_startproc
	pushq	%rbp
	.cfi_def_cfa_offset 16
	.cfi_offset 6, -16
	movq	%rsp, %rbp
	.cfi_def_cfa_register 6
	subq	$16, %rsp
	movl	$2, -12(%rbp)
	movl	-12(%rbp), %eax
	movl	%eax, %esi
	movl	$.LC1, %edi
	movl	$0, %eax
	call	printf
	movl	$-10, -8(%rbp)
	movl	-12(%rbp), %edx
	movl	-8(%rbp), %eax
	addl	%edx, %eax
	movl	%eax, -4(%rbp)
	movl	$0, %eax
	call	f.2187
	movl	-4(%rbp), %eax
	movl	%eax, %esi
	movl	$.LC2, %edi
	movl	$0, %eax
	call	printf
	movl	$0, %eax
	leave
	.cfi_def_cfa 7, 8
	ret
	.cfi_endproc
.LFE1:
	.size	main, .-main
	.ident	"GCC: (Ubuntu 4.8.4-2ubuntu1~14.04) 4.8.4"
	.section	.note.GNU-stack,"",@progbits
